; Function Attrs: nounwind uwtable
define i32 @prte_bp_graph_indegree(ptr noundef readonly captures(none) %0, i32 noundef %1) local_unnamed_addr #0 {
  %3 = icmp slt i32 %1, 0
  br i1 %3, label %pmix_pointer_array_get_item.exit.thread, label %4, !prof !63

4:                                                ; preds = %2
  %5 = getelementptr inbounds nuw i8, ptr %0, i64 136
  %6 = load i32, ptr %5, align 8, !tbaa !33
  %.not.i = icmp sgt i32 %6, %1
  br i1 %.not.i, label %pmix_pointer_array_get_item.exit, label %pmix_pointer_array_get_item.exit.thread, !prof !34

pmix_pointer_array_get_item.exit:                 ; preds = %4
  %7 = getelementptr inbounds nuw i8, ptr %0, i64 160
  %8 = load ptr, ptr %7, align 8, !tbaa !35
  %9 = zext nneg i32 %1 to i64
  %10 = getelementptr inbounds nuw ptr, ptr %8, i64 %9
  %11 = load ptr, ptr %10, align 8, !tbaa !18
  %12 = icmp eq ptr %11, null
  br i1 %12, label %pmix_pointer_array_get_item.exit.thread, label %14

pmix_pointer_array_get_item.exit.thread:          ; preds = %2, %4, %pmix_pointer_array_get_item.exit
  %13 = tail call ptr @prte_strerror(i32 noundef -13) #14
  tail call void (i32, ptr, ...) @pmix_output(i32 noundef 0, ptr noundef nonnull @.str.1, ptr noundef %13, ptr noundef nonnull @.str.2, i32 noundef 316) #14
  br label %18

14:                                               ; preds = %pmix_pointer_array_get_item.exit
  %15 = getelementptr inbounds nuw i8, ptr %11, i64 552
  %16 = load volatile i64, ptr %15, align 8, !tbaa !43
  %17 = trunc i64 %16 to i32
  br label %18

18:                                               ; preds = %14, %pmix_pointer_array_get_item.exit.thread
  %.0 = phi i32 [ -13, %pmix_pointer_array_get_item.exit.thread ], [ %17, %14 ]
  ret i32 %.0
}